; Function Attrs: nounwind uwtable
define ptr @l_Lean_Parser_parserOfStack___lambda__1(ptr noundef %0, ptr noundef %1) #1 {
  %.val = load i32, ptr %1, align 4, !tbaa !4
  %3 = icmp eq i32 %.val, 1
  br i1 %3, label %4, label %16

4:                                                ; preds = %2
  %5 = getelementptr inbounds nuw i8, ptr %1, i64 8
  %6 = load ptr, ptr %5, align 8, !tbaa !9
  %7 = ptrtoint ptr %6 to i64
  %8 = and i64 %7, 1
  %.not41 = icmp eq i64 %8, 0
  br i1 %.not41, label %9, label %lean_dec.exit28

9:                                                ; preds = %4
  %10 = load i32, ptr %6, align 4, !tbaa !4
  %11 = icmp sgt i32 %10, 1
  br i1 %11, label %12, label %14, !prof !11

12:                                               ; preds = %9
  %13 = add nsw i32 %10, -1
  store i32 %13, ptr %6, align 4, !tbaa !4
  br label %lean_dec.exit28

14:                                               ; preds = %9
  %.not.i = icmp eq i32 %10, 0
  br i1 %.not.i, label %lean_dec.exit28, label %15

15:                                               ; preds = %14
  tail call void @lean_dec_ref_cold(ptr noundef nonnull %6) #6
  br label %lean_dec.exit28

lean_dec.exit28:                                  ; preds = %15, %14, %12, %4
  store ptr %0, ptr %5, align 8, !tbaa !9
  br label %67

16:                                               ; preds = %2
  %17 = getelementptr inbounds nuw i8, ptr %1, i64 16
  %18 = load ptr, ptr %17, align 8, !tbaa !9
  %19 = getelementptr inbounds nuw i8, ptr %1, i64 40
  %20 = load i8, ptr %19, align 1, !tbaa !17
  %21 = getelementptr inbounds nuw i8, ptr %1, i64 24
  %22 = load ptr, ptr %21, align 8, !tbaa !9
  %23 = getelementptr inbounds nuw i8, ptr %1, i64 32
  %24 = load ptr, ptr %23, align 8, !tbaa !9
  %25 = ptrtoint ptr %24 to i64
  %26 = and i64 %25, 1
  %.not = icmp eq i64 %26, 0
  br i1 %.not, label %27, label %lean_inc.exit27

27:                                               ; preds = %16
  %.val.i = load i32, ptr %24, align 4, !tbaa !4
  %28 = icmp sgt i32 %.val.i, 0
  br i1 %28, label %29, label %31, !prof !11

29:                                               ; preds = %27
  %30 = add nuw i32 %.val.i, 1
  store i32 %30, ptr %24, align 4, !tbaa !4
  br label %lean_inc.exit27

31:                                               ; preds = %27
  %.not.i31 = icmp eq i32 %.val.i, 0
  br i1 %.not.i31, label %lean_inc.exit27, label %32

32:                                               ; preds = %31
  tail call void @lean_inc_ref_cold(ptr noundef nonnull %24) #6
  br label %lean_inc.exit27

lean_inc.exit27:                                  ; preds = %32, %31, %29, %16
  %33 = ptrtoint ptr %22 to i64
  %34 = and i64 %33, 1
  %.not38 = icmp eq i64 %34, 0
  br i1 %.not38, label %35, label %lean_inc.exit26

35:                                               ; preds = %lean_inc.exit27
  %.val.i32 = load i32, ptr %22, align 4, !tbaa !4
  %36 = icmp sgt i32 %.val.i32, 0
  br i1 %36, label %37, label %39, !prof !11

37:                                               ; preds = %35
  %38 = add nuw i32 %.val.i32, 1
  store i32 %38, ptr %22, align 4, !tbaa !4
  br label %lean_inc.exit26

39:                                               ; preds = %35
  %.not.i33 = icmp eq i32 %.val.i32, 0
  br i1 %.not.i33, label %lean_inc.exit26, label %40

40:                                               ; preds = %39
  tail call void @lean_inc_ref_cold(ptr noundef nonnull %22) #6
  br label %lean_inc.exit26

lean_inc.exit26:                                  ; preds = %40, %39, %37, %lean_inc.exit27
  %41 = ptrtoint ptr %18 to i64
  %42 = and i64 %41, 1
  %.not39 = icmp eq i64 %42, 0
  br i1 %.not39, label %43, label %lean_inc.exit

43:                                               ; preds = %lean_inc.exit26
  %.val.i35 = load i32, ptr %18, align 4, !tbaa !4
  %44 = icmp sgt i32 %.val.i35, 0
  br i1 %44, label %45, label %47, !prof !11

45:                                               ; preds = %43
  %46 = add nuw i32 %.val.i35, 1
  store i32 %46, ptr %18, align 4, !tbaa !4
  br label %lean_inc.exit

47:                                               ; preds = %43
  %.not.i36 = icmp eq i32 %.val.i35, 0
  br i1 %.not.i36, label %lean_inc.exit, label %48

48:                                               ; preds = %47
  tail call void @lean_inc_ref_cold(ptr noundef nonnull %18) #6
  br label %lean_inc.exit

lean_inc.exit:                                    ; preds = %48, %47, %45, %lean_inc.exit26
  %49 = ptrtoint ptr %1 to i64
  %50 = and i64 %49, 1
  %.not40 = icmp eq i64 %50, 0
  br i1 %.not40, label %51, label %lean_dec.exit

51:                                               ; preds = %lean_inc.exit
  %52 = load i32, ptr %1, align 4, !tbaa !4
  %53 = icmp sgt i32 %52, 1
  br i1 %53, label %54, label %56, !prof !11

54:                                               ; preds = %51
  %55 = add nsw i32 %52, -1
  store i32 %55, ptr %1, align 4, !tbaa !4
  br label %lean_dec.exit

56:                                               ; preds = %51
  %.not.i29 = icmp eq i32 %52, 0
  br i1 %.not.i29, label %lean_dec.exit, label %57

57:                                               ; preds = %56
  tail call void @lean_dec_ref_cold(ptr noundef nonnull %1) #6
  br label %lean_dec.exit

lean_dec.exit:                                    ; preds = %57, %56, %54, %lean_inc.exit
  tail call void @lean_inc_heartbeat() #6
  %58 = tail call noalias ptr @mi_malloc_small(i64 noundef 48) #6
  %59 = icmp eq ptr %58, null
  br i1 %59, label %60, label %lean_alloc_ctor.exit

60:                                               ; preds = %lean_dec.exit
  tail call void @lean_internal_panic_out_of_memory() #7
  unreachable

lean_alloc_ctor.exit:                             ; preds = %lean_dec.exit
  %61 = getelementptr inbounds nuw i8, ptr %58, i64 4
  %62 = getelementptr inbounds nuw i8, ptr %58, i64 40
  store i64 0, ptr %62, align 8, !tbaa !12
  store i32 1, ptr %58, align 4, !tbaa !4
  store i32 262192, ptr %61, align 4
  %63 = getelementptr inbounds nuw i8, ptr %58, i64 8
  store ptr %0, ptr %63, align 8, !tbaa !9
  %64 = getelementptr inbounds nuw i8, ptr %58, i64 16
  store ptr %18, ptr %64, align 8, !tbaa !9
  %65 = getelementptr inbounds nuw i8, ptr %58, i64 24
  store ptr %22, ptr %65, align 8, !tbaa !9
  %66 = getelementptr inbounds nuw i8, ptr %58, i64 32
  store ptr %24, ptr %66, align 8, !tbaa !9
  store i8 %20, ptr %62, align 1, !tbaa !17
  br label %67

67:                                               ; preds = %lean_alloc_ctor.exit, %lean_dec.exit28
  %.0 = phi ptr [ %1, %lean_dec.exit28 ], [ %58, %lean_alloc_ctor.exit ]
  ret ptr %.0
}